; Function Attrs: mustprogress nofree norecurse nosync nounwind willreturn memory(argmem: readwrite) uwtable
define hidden void @_ZN19OpenColorIO_v2_5dev22ExposureContrastOpData6invertEv(ptr noundef nonnull align 8 captures(none) dereferenceable(248) %0) local_unnamed_addr #9 align 2 {
  %2 = getelementptr inbounds nuw i8, ptr %0, i64 168
  %3 = load i32, ptr %2, align 8, !tbaa !15
  %4 = icmp ult i32 %3, 6
  br i1 %4, label %switch.lookup, label %6

switch.lookup:                                    ; preds = %1
  %5 = zext nneg i32 %3 to i64
  %switch.gep = getelementptr inbounds nuw [6 x i32], ptr @switch.table._ZN19OpenColorIO_v2_5dev22ExposureContrastOpData12setDirectionENS_18TransformDirectionE.1, i64 0, i64 %5
  %switch.load = load i32, ptr %switch.gep, align 4
  br label %6

6:                                                ; preds = %switch.lookup, %1
  %.0 = phi i32 [ 0, %1 ], [ %switch.load, %switch.lookup ]
  store i32 %.0, ptr %2, align 8, !tbaa !15
  ret void
}